target datalayout = "e-m:e-p270:32:32-p271:32:32-p272:64:64-i64:64-i128:128-f80:128-n8:16:32:64-S128"
target triple = "x86_64-pc-linux-gnu"

@proto_register_saphdb.ett = internal global [1 x ptr] [ptr @ett_saphdb], align 8
@.str.128 = private unnamed_addr constant [38 x i8] c"SAP HANA SQL Command Network Protocol\00", align 1
@.str.129 = private unnamed_addr constant [7 x i8] c"SAPHDB\00", align 1
@.str.130 = private unnamed_addr constant [7 x i8] c"saphdb\00", align 1
@proto_saphdb = internal global i32 0, align 4
@saphdb_handle = internal global ptr null, align 8
@global_saphdb_port_range = internal global ptr null, align 8
@.str.131 = private unnamed_addr constant [12 x i8] c"30013,30015\00", align 1
@.str.132 = private unnamed_addr constant [10 x i8] c"tcp_ports\00", align 1
@.str.133 = private unnamed_addr constant [51 x i8] c"SAP HANA SQL Command Network Protocol port numbers\00", align 1
@.str.134 = private unnamed_addr constant [82 x i8] c"Port numbers used for SAP HANA SQL Command Network Protocol (default 30013,30015)\00", align 1
@.str.135 = private unnamed_addr constant [24 x i8] c"highlight_unknown_items\00", align 1
@.str.136 = private unnamed_addr constant [37 x i8] c"Highlight unknown SAP HANA HDB items\00", align 1
@.str.137 = private unnamed_addr constant [130 x i8] c"Whether the SAP HANA HDB Protocol dissector should highlight unknown items (might be noise and generate a lot of expert warnings)\00", align 1
@global_saphdb_highlight_items = internal global i32 1, align 4

; Function Attrs: nounwind uwtable
define hidden void @proto_register_saphdb() #0 {
  %1 = alloca ptr, align 8
  %2 = alloca ptr, align 8
  %3 = call i32 @proto_register_protocol(ptr noundef @.str.128, ptr noundef @.str.129, ptr noundef @.str.130)
  store i32 %3, ptr @proto_saphdb, align 4
  %4 = load i32, ptr @proto_saphdb, align 4
  %5 = call ptr @expert_register_protocol(i32 noundef %4)
  store ptr %5, ptr %2, align 8
  %6 = load ptr, ptr %2, align 8
  call void @expert_register_field_array(ptr noundef %6, ptr noundef @proto_register_saphdb.ei, i32 noundef 8)
  %7 = load i32, ptr @proto_saphdb, align 4
  %8 = call ptr @register_dissector(ptr noundef @.str.130, ptr noundef @dissect_saphdb, i32 noundef %7)
  store ptr %8, ptr @saphdb_handle, align 8
  %9 = load i32, ptr @proto_saphdb, align 4
  call void @proto_register_field_array(i32 noundef %9, ptr noundef @proto_register_saphdb.hf, i32 noundef 60)
  call void @proto_register_subtree_array(ptr noundef @proto_register_saphdb.ett, i32 noundef 1)
  %10 = load i32, ptr @proto_saphdb, align 4
  %11 = call ptr @prefs_register_protocol(i32 noundef %10, ptr noundef @proto_reg_handoff_saphdb)
  store ptr %11, ptr %1, align 8
  %12 = call ptr @wmem_epan_scope()
  %13 = call i32 @range_convert_str(ptr noundef %12, ptr noundef @global_saphdb_port_range, ptr noundef @.str.131, i32 noundef 65535)
  %14 = load ptr, ptr %1, align 8
  call void @prefs_register_range_preference(ptr noundef %14, ptr noundef @.str.132, ptr noundef @.str.133, ptr noundef @.str.134, ptr noundef @global_saphdb_port_range, i32 noundef 65535)
  %15 = load ptr, ptr %1, align 8
  call void @prefs_register_bool_preference(ptr noundef %15, ptr noundef @.str.135, ptr noundef @.str.136, ptr noundef @.str.137, ptr noundef @global_saphdb_highlight_items)
  ret void
}