; Function Attrs: nounwind uwtable
define hidden void @proto_register_saphdb() local_unnamed_addr #0 {
  %1 = tail call i32 @proto_register_protocol(ptr noundef nonnull @.str.128, ptr noundef nonnull @.str.129, ptr noundef nonnull @.str.130) #3
  store i32 %1, ptr @proto_saphdb, align 4
  %2 = tail call ptr @expert_register_protocol(i32 noundef %1) #3
  tail call void @expert_register_field_array(ptr noundef %2, ptr noundef nonnull @proto_register_saphdb.ei, i32 noundef 8) #3
  %3 = load i32, ptr @proto_saphdb, align 4
  %4 = tail call ptr @register_dissector(ptr noundef nonnull @.str.130, ptr noundef nonnull @dissect_saphdb, i32 noundef %3) #3
  store ptr %4, ptr @saphdb_handle, align 8
  %5 = load i32, ptr @proto_saphdb, align 4
  tail call void @proto_register_field_array(i32 noundef %5, ptr noundef nonnull @proto_register_saphdb.hf, i32 noundef 60) #3
  tail call void @proto_register_subtree_array(ptr noundef nonnull @proto_register_saphdb.ett, i32 noundef 1) #3
  %6 = load i32, ptr @proto_saphdb, align 4
  %7 = tail call ptr @prefs_register_protocol(i32 noundef %6, ptr noundef nonnull @proto_reg_handoff_saphdb) #3
  %8 = tail call ptr @wmem_epan_scope() #3
  %9 = tail call i32 @range_convert_str(ptr noundef %8, ptr noundef nonnull @global_saphdb_port_range, ptr noundef nonnull @.str.131, i32 noundef 65535) #3
  tail call void @prefs_register_range_preference(ptr noundef %7, ptr noundef nonnull @.str.132, ptr noundef nonnull @.str.133, ptr noundef nonnull @.str.134, ptr noundef nonnull @global_saphdb_port_range, i32 noundef 65535) #3
  tail call void @prefs_register_bool_preference(ptr noundef %7, ptr noundef nonnull @.str.135, ptr noundef nonnull @.str.136, ptr noundef nonnull @.str.137, ptr noundef nonnull @global_saphdb_highlight_items) #3
  ret void
}